; Function Attrs: mustprogress uwtable
define internal void @_ZN11opencv_test12_GLOBAL__N_150gtest_WeightedMedianFilterTest_perf_EvalGenerator_Ev(ptr dead_on_unwind noalias writable sret(%"class.testing::internal::ParamGenerator") align 8 %0) #3 {
  %2 = alloca %"class.testing::internal::CartesianProductHolder6", align 8
  %.sroa.01.0.copyload = load i64, ptr @_ZN4perfL5szODDE, align 8
  %.sroa.0.0.copyload = load i64, ptr @_ZN4perfL6szQVGAE, align 8
  store i64 %.sroa.01.0.copyload, ptr %2, align 8, !alias.scope !7
  %3 = getelementptr inbounds i8, ptr %2, i64 8
  store i64 %.sroa.0.0.copyload, ptr %3, align 8, !alias.scope !7
  %4 = getelementptr inbounds i8, ptr %2, i64 16
  store <4 x i32> <i32 0, i32 5, i32 1, i32 3>, ptr %4, align 8, !alias.scope !7
  %5 = getelementptr inbounds i8, ptr %2, i64 32
  store <4 x i32> <i32 1, i32 3, i32 3, i32 5>, ptr %5, align 8, !alias.scope !7
  %6 = getelementptr inbounds i8, ptr %2, i64 48
  store i32 1, ptr %6, align 8, !alias.scope !7
  %7 = getelementptr inbounds i8, ptr %2, i64 52
  store i32 8, ptr %7, align 4, !alias.scope !7
  call void @_ZNK7testing8internal23CartesianProductHolder6INS0_11ValueArray2IN2cv5Size_IiEES5_EENS2_IiiEES7_S7_S7_NS2_INS3_8ximgproc13WMFWeightTypeES9_EEEcvNS0_14ParamGeneratorISt5tupleIJT_T0_T1_T2_T3_T4_EEEEIS5_N4perf7MatTypeEiiiS9_EEv(ptr dead_on_unwind writable sret(%"class.testing::internal::ParamGenerator") align 8 %0, ptr noundef nonnull align 4 dereferenceable(56) %2)
  ret void
}